target datalayout = "e-m:e-p270:32:32-p271:32:32-p272:64:64-i64:64-i128:128-f80:128-n8:16:32:64-S128"
target triple = "x86_64-pc-linux-gnu"

%struct.stack_st = type { i64, ptr, i64, i64, ptr }

; Function Attrs: nounwind uwtable
define hidden ptr @sk_value(ptr noundef %0, i64 noundef %1) #0 {
  %3 = alloca ptr, align 8
  %4 = alloca ptr, align 8
  %5 = alloca i64, align 8
  store ptr %0, ptr %4, align 8, !tbaa !10
  store i64 %1, ptr %5, align 8, !tbaa !19
  %6 = load ptr, ptr %4, align 8, !tbaa !10
  %7 = icmp ne ptr %6, null
  br i1 %7, label %8, label %14

8:                                                ; preds = %2
  %9 = load i64, ptr %5, align 8, !tbaa !19
  %10 = load ptr, ptr %4, align 8, !tbaa !10
  %11 = getelementptr inbounds nuw %struct.stack_st, ptr %10, i32 0, i32 0
  %12 = load i64, ptr %11, align 8, !tbaa !17
  %13 = icmp uge i64 %9, %12
  br i1 %13, label %14, label %15

14:                                               ; preds = %8, %2
  store ptr null, ptr %3, align 8
  br label %22

15:                                               ; preds = %8
  %16 = load ptr, ptr %4, align 8, !tbaa !10
  %17 = getelementptr inbounds nuw %struct.stack_st, ptr %16, i32 0, i32 1
  %18 = load ptr, ptr %17, align 8, !tbaa !12
  %19 = load i64, ptr %5, align 8, !tbaa !19
  %20 = getelementptr inbounds nuw ptr, ptr %18, i64 %19
  %21 = load ptr, ptr %20, align 8, !tbaa !6
  store ptr %21, ptr %3, align 8
  br label %22

22:                                               ; preds = %15, %14
  %23 = load ptr, ptr %3, align 8
  ret ptr %23
}