; Function Attrs: mustprogress nofree norecurse nosync nounwind willreturn memory(read, inaccessiblemem: none) uwtable
define hidden ptr @sk_value(ptr noundef readonly captures(address_is_null) %0, i64 noundef %1) local_unnamed_addr #5 {
  %.not = icmp eq ptr %0, null
  br i1 %.not, label %10, label %3

3:                                                ; preds = %2
  %4 = load i64, ptr %0, align 8, !tbaa !14
  %.not7 = icmp ult i64 %1, %4
  br i1 %.not7, label %5, label %10

5:                                                ; preds = %3
  %6 = getelementptr inbounds nuw i8, ptr %0, i64 8
  %7 = load ptr, ptr %6, align 8, !tbaa !6
  %8 = getelementptr inbounds nuw ptr, ptr %7, i64 %1
  %9 = load ptr, ptr %8, align 8, !tbaa !16
  br label %10

10:                                               ; preds = %2, %3, %5
  %.0 = phi ptr [ %9, %5 ], [ null, %3 ], [ null, %2 ]
  ret ptr %.0
}